target datalayout = "e-m:e-p270:32:32-p271:32:32-p272:64:64-i64:64-i128:128-f80:128-n8:16:32:64-S128"
target triple = "x86_64-pc-linux-gnu"

%struct.ECPGstruct_member = type { ptr, ptr, ptr }

; Function Attrs: nounwind uwtable
define dso_local void @ECPGfree_struct_member(ptr noundef %0) #0 {
  %2 = alloca ptr, align 8
  %3 = alloca ptr, align 8
  store ptr %0, ptr %2, align 8
  br label %4

4:                                                ; preds = %7, %1
  %5 = load ptr, ptr %2, align 8
  %6 = icmp ne ptr %5, null
  br i1 %6, label %7, label %19

7:                                                ; preds = %4
  call void @llvm.lifetime.start.p0(i64 8, ptr %3) #7
  %8 = load ptr, ptr %2, align 8
  store ptr %8, ptr %3, align 8
  %9 = load ptr, ptr %2, align 8
  %10 = getelementptr inbounds nuw %struct.ECPGstruct_member, ptr %9, i32 0, i32 2
  %11 = load ptr, ptr %10, align 8
  store ptr %11, ptr %2, align 8
  %12 = load ptr, ptr %3, align 8
  %13 = getelementptr inbounds nuw %struct.ECPGstruct_member, ptr %12, i32 0, i32 0
  %14 = load ptr, ptr %13, align 8
  call void @free(ptr noundef %14) #7
  %15 = load ptr, ptr %3, align 8
  %16 = getelementptr inbounds nuw %struct.ECPGstruct_member, ptr %15, i32 0, i32 1
  %17 = load ptr, ptr %16, align 8
  call void @ECPGfree_type(ptr noundef %17)
  %18 = load ptr, ptr %3, align 8
  call void @free(ptr noundef %18) #7
  call void @llvm.lifetime.end.p0(i64 8, ptr %3) #7
  br label %4, !llvm.loop !8

19:                                               ; preds = %4
  ret void
}