; Function Attrs: nounwind uwtable
define dso_local void @ECPGfree_struct_member(ptr noundef captures(address_is_null) %0) local_unnamed_addr #0 {
  %.not6 = icmp eq ptr %0, null
  br i1 %.not6, label %._crit_edge, label %.lr.ph

.lr.ph:                                           ; preds = %1, %.lr.ph
  %.07 = phi ptr [ %3, %.lr.ph ], [ %0, %1 ]
  %2 = getelementptr inbounds nuw i8, ptr %.07, i64 16
  %3 = load ptr, ptr %2, align 8
  %4 = load ptr, ptr %.07, align 8
  tail call void @free(ptr noundef %4) #7
  %5 = getelementptr inbounds nuw i8, ptr %.07, i64 8
  %6 = load ptr, ptr %5, align 8
  tail call void @ECPGfree_type(ptr noundef %6)
  tail call void @free(ptr noundef nonnull %.07) #7
  %.not = icmp eq ptr %3, null
  br i1 %.not, label %._crit_edge, label %.lr.ph, !llvm.loop !8

._crit_edge:                                      ; preds = %.lr.ph, %1
  ret void
}